; Function Attrs: mustprogress nounwind uwtable
define internal void @"_ZN4node13CallbackQueueIvJPNS_11EnvironmentEEE12CallbackImplIZNS_12shadow_realm11ShadowRealm12WeakCallbackERKN2v816WeakCallbackInfoIS6_EEE3$_0ED2Ev"(ptr nocapture noundef nonnull align 8 dereferenceable(32) %this) unnamed_addr #3 align 2 {
entry:
  store ptr getelementptr inbounds ({ [5 x ptr] }, ptr @_ZTVN4node13CallbackQueueIvJPNS_11EnvironmentEEE8CallbackE, i64 0, i32 0, i64 2), ptr %this, align 8
  %next_.i = getelementptr inbounds i8, ptr %this, i64 16
  %0 = load ptr, ptr %next_.i, align 8
  %cmp.not.i.i = icmp eq ptr %0, null
  br i1 %cmp.not.i.i, label %_ZN4node13CallbackQueueIvJPNS_11EnvironmentEEE8CallbackD2Ev.exit, label %_ZNKSt14default_deleteIN4node13CallbackQueueIvJPNS0_11EnvironmentEEE8CallbackEEclEPS5_.exit.i.i

_ZNKSt14default_deleteIN4node13CallbackQueueIvJPNS0_11EnvironmentEEE8CallbackEEclEPS5_.exit.i.i: ; preds = %entry
  %vtable.i.i.i = load ptr, ptr %0, align 8
  %vfn.i.i.i = getelementptr inbounds i8, ptr %vtable.i.i.i, i64 8
  %1 = load ptr, ptr %vfn.i.i.i, align 8
  tail call void %1(ptr noundef nonnull align 8 dereferenceable(24) %0) #13
  br label %_ZN4node13CallbackQueueIvJPNS_11EnvironmentEEE8CallbackD2Ev.exit

_ZN4node13CallbackQueueIvJPNS_11EnvironmentEEE8CallbackD2Ev.exit: ; preds = %entry, %_ZNKSt14default_deleteIN4node13CallbackQueueIvJPNS0_11EnvironmentEEE8CallbackEEclEPS5_.exit.i.i
  store ptr null, ptr %next_.i, align 8
  ret void
}